target datalayout = "e-m:e-p270:32:32-p271:32:32-p272:64:64-i64:64-i128:128-f80:128-n8:16:32:64-S128"
target triple = "x86_64-pc-linux-gnu"

%"class.icu_77::number::Scale" = type <{ i32, [4 x i8], ptr, i32, [4 x i8] }>
%struct.decNumber = type { i32, i32, i8, [1 x i8] }
%"class.icu_77::number::impl::DecNum" = type { %"class.icu_77::MaybeStackHeaderAndArray", %struct.decContext, [4 x i8] }
%"class.icu_77::MaybeStackHeaderAndArray" = type <{ ptr, i32, i8, [3 x i8], %struct.decNumber, [34 x i8], [2 x i8] }>
%struct.decContext = type { i32, i32, i32, i32, i32, i32, i8 }

; Function Attrs: mustprogress uwtable
define linkonce_odr void @_ZN6icu_7724MaybeStackHeaderAndArrayI9decNumbercLi34EE13releaseMemoryEv(ptr noundef nonnull align 8 dereferenceable(62) %0) #1 comdat align 2 {
  %2 = alloca ptr, align 8
  store ptr %0, ptr %2, align 8, !tbaa !56
  %3 = load ptr, ptr %2, align 8
  %4 = getelementptr inbounds nuw %"class.icu_77::MaybeStackHeaderAndArray", ptr %3, i32 0, i32 2
  %5 = load i8, ptr %4, align 4, !tbaa !60
  %6 = icmp ne i8 %5, 0
  br i1 %6, label %7, label %10

7:                                                ; preds = %1
  %8 = getelementptr inbounds nuw %"class.icu_77::MaybeStackHeaderAndArray", ptr %3, i32 0, i32 0
  %9 = load ptr, ptr %8, align 8, !tbaa !58
  call void @uprv_free_77(ptr noundef %9)
  br label %10

10:                                               ; preds = %7, %1
  ret void
}

; Function Attrs: mustprogress nounwind uwtable
define linkonce_odr void @_ZN6icu_7724MaybeStackHeaderAndArrayI9decNumbercLi34EED2Ev(ptr noundef nonnull align 8 dereferenceable(62) %0) unnamed_addr #0 comdat align 2 personality ptr @__gxx_personality_v0 {
  %2 = alloca ptr, align 8
  store ptr %0, ptr %2, align 8, !tbaa !56
  %3 = load ptr, ptr %2, align 8
  invoke void @_ZN6icu_7724MaybeStackHeaderAndArrayI9decNumbercLi34EE13releaseMemoryEv(ptr noundef nonnull align 8 dereferenceable(62) %3)
          to label %4 unwind label %5

4:                                                ; preds = %1
  ret void

5:                                                ; preds = %1
  %6 = landingpad { ptr, i32 }
          catch ptr null
  %7 = extractvalue { ptr, i32 } %6, 0
  call void @__clang_call_terminate(ptr %7) #12
  unreachable
}

; Function Attrs: mustprogress nounwind uwtable
define linkonce_odr noundef ptr @_ZNK6icu_7724MaybeStackHeaderAndArrayI9decNumbercLi34EE8getAliasEv(ptr noundef nonnull align 8 dereferenceable(62) %0) #0 comdat align 2 {
  %2 = alloca ptr, align 8
  store ptr %0, ptr %2, align 8, !tbaa !56
  %3 = load ptr, ptr %2, align 8
  %4 = getelementptr inbounds nuw %"class.icu_77::MaybeStackHeaderAndArray", ptr %3, i32 0, i32 0
  %5 = load ptr, ptr %4, align 8, !tbaa !58
  ret ptr %5
}

; Function Attrs: inlinehint mustprogress nounwind uwtable
define linkonce_odr void @_ZN6icu_776number4impl6DecNumD2Ev(ptr noundef nonnull align 8 dereferenceable(92) %0) unnamed_addr #2 comdat align 2 {
  %2 = alloca ptr, align 8
  store ptr %0, ptr %2, align 8, !tbaa !25
  %3 = load ptr, ptr %2, align 8
  %4 = getelementptr inbounds nuw %"class.icu_77::number::impl::DecNum", ptr %3, i32 0, i32 0
  call void @_ZN6icu_7724MaybeStackHeaderAndArrayI9decNumbercLi34EED2Ev(ptr noundef nonnull align 8 dereferenceable(62) %4) #10
  ret void
}

; Function Attrs: inlinehint mustprogress uwtable
define linkonce_odr noundef ptr @_ZNK6icu_776number4impl6DecNum15getRawDecNumberEv(ptr noundef nonnull align 8 dereferenceable(92) %0) #3 comdat align 2 {
  %2 = alloca ptr, align 8
  store ptr %0, ptr %2, align 8, !tbaa !25
  %3 = load ptr, ptr %2, align 8
  %4 = getelementptr inbounds nuw %"class.icu_77::number::impl::DecNum", ptr %3, i32 0, i32 0
  %5 = call noundef ptr @_ZNK6icu_7724MaybeStackHeaderAndArrayI9decNumbercLi34EE8getAliasEv(ptr noundef nonnull align 8 dereferenceable(62) %4)
  ret ptr %5
}

; Function Attrs: mustprogress uwtable
define void @_ZN6icu_776number5ScaleC2EiPNS0_4impl6DecNumE(ptr noundef nonnull align 8 dereferenceable(20) %0, i32 noundef %1, ptr noundef %2) unnamed_addr #1 align 2 {
  %4 = alloca ptr, align 8
  %5 = alloca i32, align 4
  %6 = alloca ptr, align 8
  store ptr %0, ptr %4, align 8, !tbaa !23
  store i32 %1, ptr %5, align 4, !tbaa !14
  store ptr %2, ptr %6, align 8, !tbaa !25
  %7 = load ptr, ptr %4, align 8
  %8 = getelementptr inbounds nuw %"class.icu_77::number::Scale", ptr %7, i32 0, i32 0
  %9 = load i32, ptr %5, align 4, !tbaa !14
  store i32 %9, ptr %8, align 8, !tbaa !27
  %10 = getelementptr inbounds nuw %"class.icu_77::number::Scale", ptr %7, i32 0, i32 2
  %11 = load ptr, ptr %6, align 8, !tbaa !25
  store ptr %11, ptr %10, align 8, !tbaa !29
  %12 = getelementptr inbounds nuw %"class.icu_77::number::Scale", ptr %7, i32 0, i32 3
  store i32 0, ptr %12, align 8, !tbaa !30
  %13 = getelementptr inbounds nuw %"class.icu_77::number::Scale", ptr %7, i32 0, i32 2
  %14 = load ptr, ptr %13, align 8, !tbaa !29
  %15 = icmp ne ptr %14, null
  br i1 %15, label %16, label %54

16:                                               ; preds = %3
  %17 = getelementptr inbounds nuw %"class.icu_77::number::Scale", ptr %7, i32 0, i32 2
  %18 = load ptr, ptr %17, align 8, !tbaa !29
  call void @_ZN6icu_776number4impl6DecNum9normalizeEv(ptr noundef nonnull align 8 dereferenceable(92) %18)
  %19 = getelementptr inbounds nuw %"class.icu_77::number::Scale", ptr %7, i32 0, i32 2
  %20 = load ptr, ptr %19, align 8, !tbaa !29
  %21 = call noundef ptr @_ZNK6icu_776number4impl6DecNum15getRawDecNumberEv(ptr noundef nonnull align 8 dereferenceable(92) %20)
  %22 = getelementptr inbounds nuw %struct.decNumber, ptr %21, i32 0, i32 0
  %23 = load i32, ptr %22, align 4, !tbaa !31
  %24 = icmp eq i32 %23, 1
  br i1 %24, label %25, label %53

25:                                               ; preds = %16
  %26 = getelementptr inbounds nuw %"class.icu_77::number::Scale", ptr %7, i32 0, i32 2
  %27 = load ptr, ptr %26, align 8, !tbaa !29
  %28 = call noundef ptr @_ZNK6icu_776number4impl6DecNum15getRawDecNumberEv(ptr noundef nonnull align 8 dereferenceable(92) %27)
  %29 = getelementptr inbounds nuw %struct.decNumber, ptr %28, i32 0, i32 3
  %30 = getelementptr inbounds [1 x i8], ptr %29, i64 0, i64 0
  %31 = load i8, ptr %30, align 1, !tbaa !33
  %32 = zext i8 %31 to i32
  %33 = icmp eq i32 %32, 1
  br i1 %33, label %34, label %53

34:                                               ; preds = %25
  %35 = getelementptr inbounds nuw %"class.icu_77::number::Scale", ptr %7, i32 0, i32 2
  %36 = load ptr, ptr %35, align 8, !tbaa !29
  %37 = call noundef zeroext i1 @_ZNK6icu_776number4impl6DecNum10isNegativeEv(ptr noundef nonnull align 8 dereferenceable(92) %36)
  br i1 %37, label %53, label %38

38:                                               ; preds = %34
  %39 = getelementptr inbounds nuw %"class.icu_77::number::Scale", ptr %7, i32 0, i32 2
  %40 = load ptr, ptr %39, align 8, !tbaa !29
  %41 = call noundef ptr @_ZNK6icu_776number4impl6DecNum15getRawDecNumberEv(ptr noundef nonnull align 8 dereferenceable(92) %40)
  %42 = getelementptr inbounds nuw %struct.decNumber, ptr %41, i32 0, i32 1
  %43 = load i32, ptr %42, align 4, !tbaa !34
  %44 = getelementptr inbounds nuw %"class.icu_77::number::Scale", ptr %7, i32 0, i32 0
  %45 = load i32, ptr %44, align 8, !tbaa !27
  %46 = add nsw i32 %45, %43
  store i32 %46, ptr %44, align 8, !tbaa !27
  %47 = getelementptr inbounds nuw %"class.icu_77::number::Scale", ptr %7, i32 0, i32 2
  %48 = load ptr, ptr %47, align 8, !tbaa !29
  %49 = icmp eq ptr %48, null
  br i1 %49, label %51, label %50

50:                                               ; preds = %38
  call void @_ZN6icu_776number4impl6DecNumD2Ev(ptr noundef nonnull align 8 dereferenceable(92) %48) #10
  call void @_ZN6icu_777UMemorydlEPv(ptr noundef %48) #10
  br label %51

51:                                               ; preds = %50, %38
  %52 = getelementptr inbounds nuw %"class.icu_77::number::Scale", ptr %7, i32 0, i32 2
  store ptr null, ptr %52, align 8, !tbaa !29
  br label %53

53:                                               ; preds = %51, %34, %25, %16
  br label %54

54:                                               ; preds = %53, %3
  ret void
}