; Function Attrs: mustprogress uwtable
define void @_ZN6icu_776number5ScaleC2EiPNS0_4impl6DecNumE(ptr noundef nonnull align 8 captures(none) dereferenceable(20) initializes((0, 4), (8, 20)) %0, i32 noundef %1, ptr noundef %2) unnamed_addr #1 align 2 personality ptr @__gxx_personality_v0 {
  store i32 %1, ptr %0, align 8, !tbaa !15
  %4 = getelementptr inbounds nuw i8, ptr %0, i64 8
  store ptr %2, ptr %4, align 8, !tbaa !18
  %5 = getelementptr inbounds nuw i8, ptr %0, i64 16
  store i32 0, ptr %5, align 8, !tbaa !19
  %.not = icmp eq ptr %2, null
  br i1 %.not, label %31, label %6

6:                                                ; preds = %3
  tail call void @_ZN6icu_776number4impl6DecNum9normalizeEv(ptr noundef nonnull align 8 dereferenceable(92) %2)
  %7 = load ptr, ptr %4, align 8, !tbaa !18
  %8 = load ptr, ptr %7, align 8, !tbaa !20
  %9 = load i32, ptr %8, align 4, !tbaa !23
  %10 = icmp eq i32 %9, 1
  br i1 %10, label %11, label %31

11:                                               ; preds = %6
  %12 = getelementptr inbounds nuw i8, ptr %8, i64 9
  %13 = load i8, ptr %12, align 1, !tbaa !24
  %14 = icmp eq i8 %13, 1
  br i1 %14, label %15, label %31

15:                                               ; preds = %11
  %16 = tail call noundef zeroext i1 @_ZNK6icu_776number4impl6DecNum10isNegativeEv(ptr noundef nonnull align 8 dereferenceable(92) %7)
  br i1 %16, label %31, label %17

17:                                               ; preds = %15
  %18 = load ptr, ptr %4, align 8, !tbaa !18
  %19 = load ptr, ptr %18, align 8, !tbaa !20
  %20 = getelementptr inbounds nuw i8, ptr %19, i64 4
  %21 = load i32, ptr %20, align 4, !tbaa !25
  %22 = load i32, ptr %0, align 8, !tbaa !15
  %23 = add nsw i32 %22, %21
  store i32 %23, ptr %0, align 8, !tbaa !15
  %24 = getelementptr inbounds nuw i8, ptr %18, i64 12
  %25 = load i8, ptr %24, align 4, !tbaa !26
  %.not.i.i.i = icmp eq i8 %25, 0
  br i1 %.not.i.i.i, label %30, label %26

26:                                               ; preds = %17
  invoke void @uprv_free_77(ptr noundef nonnull %19)
          to label %30 unwind label %27

27:                                               ; preds = %26
  %28 = landingpad { ptr, i32 }
          catch ptr null
  %29 = extractvalue { ptr, i32 } %28, 0
  tail call void @__clang_call_terminate(ptr %29) #15
  unreachable

30:                                               ; preds = %26, %17
  tail call void @_ZN6icu_777UMemorydlEPv(ptr noundef nonnull %18) #13
  store ptr null, ptr %4, align 8, !tbaa !18
  br label %31

31:                                               ; preds = %6, %11, %15, %30, %3
  ret void
}